target datalayout = "e-m:e-p270:32:32-p271:32:32-p272:64:64-i64:64-i128:128-f80:128-n8:16:32:64-S128"
target triple = "x86_64-pc-linux-gnu"

%class.QPointer = type { %class.QWeakPointer }
%class.QWeakPointer = type { ptr, ptr }
%class.QString = type { %struct.QArrayDataPointer }
%struct.QArrayDataPointer = type { ptr, ptr, i64 }
%class.QVariant = type { %"struct.QVariant::Private" }
%"struct.QVariant::Private" = type { %union.anon, i64 }
%union.anon = type { ptr, [16 x i8] }
%class.QSharedPointer = type { ptr, ptr }
%struct.QLatin1Char = type { i8 }
%class.IOGraphDialog = type { %class.WiresharkDialog.base, ptr, ptr, %class.QPointer, ptr, %class.QList.5, %class.QString, ptr, ptr, i32, %struct.nstime_t, i8, ptr, %class.QPoint, %class.QMenu, ptr, i8, i8, i8, i8, i32, %class.QSharedPointer, %class.QSharedPointer.9 }
%class.WiresharkDialog.base = type <{ %class.GeometryStateDialog, ptr, i8, [7 x i8], %class.QString, %class.QList.1, i32, i8 }>
%class.GeometryStateDialog = type { %class.QDialog, %class.QString, ptr }
%class.QDialog = type { %class.QWidget }
%class.QWidget = type { %class.QObject, %class.QPaintDevice.base, ptr }
%class.QObject = type { ptr, %class.QScopedPointer }
%class.QScopedPointer = type { ptr }
%class.QPaintDevice.base = type <{ ptr, i16 }>
%class.QList.1 = type { %struct.QArrayDataPointer.4 }
%struct.QArrayDataPointer.4 = type { ptr, ptr, i64 }
%class.QList.5 = type { %struct.QArrayDataPointer.8 }
%struct.QArrayDataPointer.8 = type { ptr, ptr, i64 }
%struct.nstime_t = type { i64, i32 }
%class.QPoint = type { i32, i32 }
%class.QMenu = type { %class.QWidget }
%class.QSharedPointer.9 = type { ptr, ptr }
%class.Ui_IOGraphDialog = type { ptr, ptr, ptr, ptr, ptr, ptr, ptr, ptr, ptr, ptr, ptr, ptr, ptr, ptr, ptr, ptr, ptr, ptr, ptr, ptr, ptr, ptr, ptr, ptr, ptr, ptr, ptr, ptr, ptr, ptr, ptr, ptr, ptr, ptr, ptr, ptr, ptr, ptr, ptr, ptr, ptr, ptr, ptr, ptr, ptr, ptr }
%class.QCustomPlot = type <{ %class.QWidget, ptr, ptr, ptr, ptr, ptr, %class.QRect, double, ptr, i8, [7 x i8], %class.QList.10, %class.QList.14, %class.QList.18, %class.QList.22, %class.QFlags, %class.QFlags, %class.QFlags.26, i32, i8, [7 x i8], %class.QBrush, %class.QPixmap, %class.QPixmap, i8, [3 x i8], i32, ptr, %class.QFlags.29, i32, i32, [4 x i8], ptr, i8, [7 x i8], %class.QList.30, %class.QPoint, i8, [7 x i8], %class.QPointer.34, %class.QPointer.34, %class.QVariant, %class.QVariant, i8, i8, [6 x i8], double, double, i32, %class.QFlags, i8, [7 x i8] }>
%class.QRect = type { i32, i32, i32, i32 }
%class.QList.10 = type { %struct.QArrayDataPointer.13 }
%struct.QArrayDataPointer.13 = type { ptr, ptr, i64 }
%class.QList.14 = type { %struct.QArrayDataPointer.17 }
%struct.QArrayDataPointer.17 = type { ptr, ptr, i64 }
%class.QList.18 = type { %struct.QArrayDataPointer.21 }
%struct.QArrayDataPointer.21 = type { ptr, ptr, i64 }
%class.QList.22 = type { %struct.QArrayDataPointer.25 }
%struct.QArrayDataPointer.25 = type { ptr, ptr, i64 }
%class.QFlags.26 = type { i32 }
%class.QBrush = type { %"class.std::unique_ptr" }
%"class.std::unique_ptr" = type { %"struct.std::__uniq_ptr_data" }
%"struct.std::__uniq_ptr_data" = type { %"class.std::__uniq_ptr_impl" }
%"class.std::__uniq_ptr_impl" = type { %"class.std::tuple" }
%"class.std::tuple" = type { %"struct.std::_Tuple_impl" }
%"struct.std::_Tuple_impl" = type { %"struct.std::_Head_base.28" }
%"struct.std::_Head_base.28" = type { ptr }
%class.QPixmap = type { %class.QPaintDevice.base, %class.QExplicitlySharedDataPointer }
%class.QExplicitlySharedDataPointer = type { ptr }
%class.QFlags.29 = type { i32 }
%class.QList.30 = type { %struct.QArrayDataPointer.33 }
%struct.QArrayDataPointer.33 = type { ptr, ptr, i64 }
%class.QPointer.34 = type { %class.QWeakPointer }
%class.QFlags = type { i32 }
%class.QList = type { %struct.QArrayDataPointer.0 }
%struct.QArrayDataPointer.0 = type { ptr, ptr, i64 }
%class.QColor = type <{ i32, %"union.QColor::CT", [2 x i8] }>
%"union.QColor::CT" = type { %struct.anon }
%struct.anon = type { i16, i16, i16, i16, i16 }
%class.QPen = type { ptr }
%class.QCPLayerable.base = type <{ %class.QObject, i8, [7 x i8], ptr, %class.QPointer.34, ptr, i8 }>
%class.QCPRange = type { double, double }
%class.QCPAxis = type { %class.QCPLayerable.base, i32, ptr, i32, i32, %class.QFlags.35, %class.QFlags.35, %class.QPen, %class.QPen, %class.QString, %class.QFont, %class.QFont, %class.QColor, %class.QColor, i8, [7 x i8], %class.QFont, %class.QFont, %class.QColor, %class.QColor, i32, %struct.QLatin1Char, i8, i8, i8, %class.QPen, %class.QPen, %class.QPen, %class.QPen, %class.QCPRange, i8, i32, ptr, ptr, %class.QSharedPointer, %class.QList.41, %class.QList, %class.QList.41, i8, i32, i8, %class.QCPRange, %class.QFlags, %class.QFlags }
%class.QFlags.35 = type { i32 }
%class.QFont = type <{ %class.QExplicitlySharedDataPointer.36, i32, [4 x i8] }>
%class.QExplicitlySharedDataPointer.36 = type { ptr }
%class.QList.41 = type { %struct.QArrayDataPointer.44 }
%struct.QArrayDataPointer.44 = type { ptr, ptr, i64 }

; Function Attrs: mustprogress nounwind null_pointer_is_valid sspstrong uwtable
define linkonce_odr noundef double @_ZNK8QCPRange6centerEv(ptr noundef align 8 dereferenceable_or_null(16) %0) #7 comdat align 2 {
  %2 = alloca ptr, align 8
  store ptr %0, ptr %2, align 8
  %3 = load ptr, ptr %2, align 8
  %4 = getelementptr inbounds nuw %class.QCPRange, ptr %3, i32 0, i32 1
  %5 = load double, ptr %4, align 8
  %6 = getelementptr inbounds nuw %class.QCPRange, ptr %3, i32 0, i32 0
  %7 = load double, ptr %6, align 8
  %8 = fadd double %5, %7
  %9 = fmul double %8, 5.000000e-01
  ret double %9
}

; Function Attrs: mustprogress nounwind null_pointer_is_valid sspstrong uwtable
define linkonce_odr { double, double } @_ZNK7QCPAxis5rangeEv(ptr noundef align 8 dereferenceable_or_null(472) %0) #7 comdat align 2 {
  %2 = alloca %class.QCPRange, align 8
  %3 = alloca ptr, align 8
  store ptr %0, ptr %3, align 8
  %4 = load ptr, ptr %3, align 8
  %5 = getelementptr inbounds nuw %class.QCPAxis, ptr %4, i32 0, i32 29
  call void @llvm.memcpy.p0.p0.i64(ptr align 8 %2, ptr align 8 %5, i64 16, i1 false)
  %6 = load { double, double }, ptr %2, align 8
  ret { double, double } %6
}

; Function Attrs: mustprogress null_pointer_is_valid sspstrong uwtable
define void @_ZN13IOGraphDialog8zoomAxesEb(ptr noundef align 8 dereferenceable_or_null(384) %0, i1 noundef zeroext %1) #3 align 2 {
  %3 = alloca ptr, align 8
  %4 = alloca i8, align 1
  %5 = alloca ptr, align 8
  %6 = alloca double, align 8
  %7 = alloca double, align 8
  %8 = alloca %class.QCPRange, align 8
  %9 = alloca %class.QCPRange, align 8
  store ptr %0, ptr %3, align 8
  %10 = zext i1 %1 to i8
  store i8 %10, ptr %4, align 1
  %11 = load ptr, ptr %3, align 8
  call void @llvm.lifetime.start.p0(i64 8, ptr %5) #2
  %12 = getelementptr inbounds nuw %class.IOGraphDialog, ptr %11, i32 0, i32 1
  %13 = load ptr, ptr %12, align 8
  %14 = getelementptr inbounds nuw %class.Ui_IOGraphDialog, ptr %13, i32 0, i32 26
  %15 = load ptr, ptr %14, align 8
  store ptr %15, ptr %5, align 8
  call void @llvm.lifetime.start.p0(i64 8, ptr %6) #2
  %16 = load ptr, ptr %5, align 8
  %17 = call noundef ptr @_ZNK11QCustomPlot8axisRectEi(ptr noundef align 8 dereferenceable_or_null(513) %16, i32 noundef 0)
  %18 = call noundef double @_ZN11QCPAxisRect15rangeZoomFactorEN2Qt11OrientationE(ptr noundef align 8 dereferenceable_or_null(432) %17, i32 noundef 1)
  store double %18, ptr %6, align 8
  call void @llvm.lifetime.start.p0(i64 8, ptr %7) #2
  %19 = load ptr, ptr %5, align 8
  %20 = call noundef ptr @_ZNK11QCustomPlot8axisRectEi(ptr noundef align 8 dereferenceable_or_null(513) %19, i32 noundef 0)
  %21 = call noundef double @_ZN11QCPAxisRect15rangeZoomFactorEN2Qt11OrientationE(ptr noundef align 8 dereferenceable_or_null(432) %20, i32 noundef 2)
  store double %21, ptr %7, align 8
  %22 = getelementptr inbounds nuw %class.IOGraphDialog, ptr %11, i32 0, i32 19
  store i8 0, ptr %22, align 1
  %23 = load i8, ptr %4, align 1, !range !6, !noundef !7
  %24 = trunc i8 %23 to i1
  br i1 %24, label %30, label %25

25:                                               ; preds = %2
  %26 = load double, ptr %6, align 8
  %27 = call double @pow(double noundef %26, double noundef -1.000000e+00) #2
  store double %27, ptr %6, align 8
  %28 = load double, ptr %7, align 8
  %29 = call double @pow(double noundef %28, double noundef -1.000000e+00) #2
  store double %29, ptr %7, align 8
  br label %30

30:                                               ; preds = %25, %2
  %31 = load ptr, ptr %5, align 8
  %32 = getelementptr inbounds nuw %class.QCustomPlot, ptr %31, i32 0, i32 1
  %33 = load ptr, ptr %32, align 8
  %34 = load double, ptr %6, align 8
  call void @llvm.lifetime.start.p0(i64 16, ptr %8) #2
  %35 = load ptr, ptr %5, align 8
  %36 = getelementptr inbounds nuw %class.QCustomPlot, ptr %35, i32 0, i32 1
  %37 = load ptr, ptr %36, align 8
  %38 = call { double, double } @_ZNK7QCPAxis5rangeEv(ptr noundef align 8 dereferenceable_or_null(472) %37)
  %39 = getelementptr inbounds nuw { double, double }, ptr %8, i32 0, i32 0
  %40 = extractvalue { double, double } %38, 0
  store double %40, ptr %39, align 8
  %41 = getelementptr inbounds nuw { double, double }, ptr %8, i32 0, i32 1
  %42 = extractvalue { double, double } %38, 1
  store double %42, ptr %41, align 8
  %43 = call noundef double @_ZNK8QCPRange6centerEv(ptr noundef align 8 dereferenceable_or_null(16) %8)
  call void @_ZN7QCPAxis10scaleRangeEdd(ptr noundef align 8 dereferenceable_or_null(472) %33, double noundef %34, double noundef %43)
  call void @llvm.lifetime.end.p0(i64 16, ptr %8) #2
  %44 = load ptr, ptr %5, align 8
  %45 = getelementptr inbounds nuw %class.QCustomPlot, ptr %44, i32 0, i32 2
  %46 = load ptr, ptr %45, align 8
  %47 = load double, ptr %7, align 8
  call void @llvm.lifetime.start.p0(i64 16, ptr %9) #2
  %48 = load ptr, ptr %5, align 8
  %49 = getelementptr inbounds nuw %class.QCustomPlot, ptr %48, i32 0, i32 2
  %50 = load ptr, ptr %49, align 8
  %51 = call { double, double } @_ZNK7QCPAxis5rangeEv(ptr noundef align 8 dereferenceable_or_null(472) %50)
  %52 = getelementptr inbounds nuw { double, double }, ptr %9, i32 0, i32 0
  %53 = extractvalue { double, double } %51, 0
  store double %53, ptr %52, align 8
  %54 = getelementptr inbounds nuw { double, double }, ptr %9, i32 0, i32 1
  %55 = extractvalue { double, double } %51, 1
  store double %55, ptr %54, align 8
  %56 = call noundef double @_ZNK8QCPRange6centerEv(ptr noundef align 8 dereferenceable_or_null(16) %9)
  call void @_ZN7QCPAxis10scaleRangeEdd(ptr noundef align 8 dereferenceable_or_null(472) %46, double noundef %47, double noundef %56)
  call void @llvm.lifetime.end.p0(i64 16, ptr %9) #2
  %57 = load ptr, ptr %5, align 8
  call void @_ZN11QCustomPlot6replotENS_15RefreshPriorityE(ptr noundef align 8 dereferenceable_or_null(513) %57, i32 noundef 2)
  call void @llvm.lifetime.end.p0(i64 8, ptr %7) #2
  call void @llvm.lifetime.end.p0(i64 8, ptr %6) #2
  call void @llvm.lifetime.end.p0(i64 8, ptr %5) #2
  ret void
}

; Function Attrs: mustprogress null_pointer_is_valid sspstrong uwtable
define void @_ZN13IOGraphDialog25on_actionZoomIn_triggeredEv(ptr noundef align 8 dereferenceable_or_null(384) %0) #3 align 2 {
  %2 = alloca ptr, align 8
  store ptr %0, ptr %2, align 8
  %3 = load ptr, ptr %2, align 8
  call void @_ZN13IOGraphDialog8zoomAxesEb(ptr noundef align 8 dereferenceable_or_null(384) %3, i1 noundef zeroext true)
  ret void
}