; Function Attrs: mustprogress null_pointer_is_valid sspstrong uwtable
define void @_ZN13IOGraphDialog25on_actionZoomIn_triggeredEv(ptr noundef align 8 captures(none) dereferenceable_or_null(384) initializes((347, 348)) %0) local_unnamed_addr #2 align 2 {
  %2 = getelementptr inbounds nuw i8, ptr %0, i64 144
  %3 = load ptr, ptr %2, align 8
  %4 = getelementptr inbounds nuw i8, ptr %3, i64 208
  %5 = load ptr, ptr %4, align 8
  %6 = tail call noundef ptr @_ZNK11QCustomPlot8axisRectEi(ptr noundef align 8 dereferenceable_or_null(513) %5, i32 noundef 0)
  %7 = tail call noundef double @_ZN11QCPAxisRect15rangeZoomFactorEN2Qt11OrientationE(ptr noundef align 8 dereferenceable_or_null(432) %6, i32 noundef 1)
  %8 = tail call noundef ptr @_ZNK11QCustomPlot8axisRectEi(ptr noundef align 8 dereferenceable_or_null(513) %5, i32 noundef 0)
  %9 = tail call noundef double @_ZN11QCPAxisRect15rangeZoomFactorEN2Qt11OrientationE(ptr noundef align 8 dereferenceable_or_null(432) %8, i32 noundef 2)
  %10 = getelementptr inbounds nuw i8, ptr %0, i64 347
  store i8 0, ptr %10, align 1
  %11 = getelementptr inbounds nuw i8, ptr %5, i64 40
  %12 = load ptr, ptr %11, align 8
  %13 = getelementptr inbounds nuw i8, ptr %12, i64 304
  %.sroa.0.0.copyload.i.i = load double, ptr %13, align 8
  %.sroa.2.0..sroa_idx.i.i = getelementptr inbounds nuw i8, ptr %12, i64 312
  %.sroa.2.0.copyload.i.i = load double, ptr %.sroa.2.0..sroa_idx.i.i, align 8
  %14 = fadd double %.sroa.0.0.copyload.i.i, %.sroa.2.0.copyload.i.i
  %15 = fmul double %14, 5.000000e-01
  tail call void @_ZN7QCPAxis10scaleRangeEdd(ptr noundef align 8 dereferenceable_or_null(472) %12, double noundef %7, double noundef %15)
  %16 = getelementptr inbounds nuw i8, ptr %5, i64 48
  %17 = load ptr, ptr %16, align 8
  %18 = getelementptr inbounds nuw i8, ptr %17, i64 304
  %.sroa.0.0.copyload.i14.i = load double, ptr %18, align 8
  %.sroa.2.0..sroa_idx.i15.i = getelementptr inbounds nuw i8, ptr %17, i64 312
  %.sroa.2.0.copyload.i16.i = load double, ptr %.sroa.2.0..sroa_idx.i15.i, align 8
  %19 = fadd double %.sroa.0.0.copyload.i14.i, %.sroa.2.0.copyload.i16.i
  %20 = fmul double %19, 5.000000e-01
  tail call void @_ZN7QCPAxis10scaleRangeEdd(ptr noundef align 8 dereferenceable_or_null(472) %17, double noundef %9, double noundef %20)
  tail call void @_ZN11QCustomPlot6replotENS_15RefreshPriorityE(ptr noundef align 8 dereferenceable_or_null(513) %5, i32 noundef 2)
  ret void
}